target datalayout = "e-m:e-p270:32:32-p271:32:32-p272:64:64-i64:64-i128:128-f80:128-n8:16:32:64-S128"
target triple = "x86_64-pc-linux-gnu"

%struct.avifDecoderData = type { ptr, %struct.avifTrackArray, %struct.avifTileArray, [2 x %struct.avifTileInfo], i32, ptr, ptr, [4 x i8], ptr, ptr, i32 }
%struct.avifTrackArray = type { ptr, i32, i32, i32 }
%struct.avifTileArray = type { ptr, i32, i32, i32 }
%struct.avifTileInfo = type { i32, i32, i32, %struct.avifImageGrid }
%struct.avifImageGrid = type { i32, i32, i32, i32 }
%struct.avifTile = type { ptr, i32, ptr, ptr, i32, i32, i8 }

; Function Attrs: nounwind uwtable
define internal void @avifDecoderDataResetCodec(ptr noundef %0) #0 {
  %2 = alloca ptr, align 8
  %3 = alloca i32, align 4
  %4 = alloca ptr, align 8
  %5 = alloca i32, align 4
  store ptr %0, ptr %2, align 8
  store i32 0, ptr %3, align 4
  br label %6

6:                                                ; preds = %58, %1
  %7 = load i32, ptr %3, align 4
  %8 = load ptr, ptr %2, align 8
  %9 = getelementptr inbounds nuw %struct.avifDecoderData, ptr %8, i32 0, i32 2
  %10 = getelementptr inbounds nuw %struct.avifTileArray, ptr %9, i32 0, i32 2
  %11 = load i32, ptr %10, align 4
  %12 = icmp ult i32 %7, %11
  br i1 %12, label %13, label %61

13:                                               ; preds = %6
  %14 = load ptr, ptr %2, align 8
  %15 = getelementptr inbounds nuw %struct.avifDecoderData, ptr %14, i32 0, i32 2
  %16 = getelementptr inbounds nuw %struct.avifTileArray, ptr %15, i32 0, i32 0
  %17 = load ptr, ptr %16, align 8
  %18 = load i32, ptr %3, align 4
  %19 = zext i32 %18 to i64
  %20 = getelementptr inbounds %struct.avifTile, ptr %17, i64 %19
  store ptr %20, ptr %4, align 8
  %21 = load ptr, ptr %4, align 8
  %22 = getelementptr inbounds nuw %struct.avifTile, ptr %21, i32 0, i32 3
  %23 = load ptr, ptr %22, align 8
  %24 = icmp ne ptr %23, null
  br i1 %24, label %25, label %29

25:                                               ; preds = %13
  %26 = load ptr, ptr %4, align 8
  %27 = getelementptr inbounds nuw %struct.avifTile, ptr %26, i32 0, i32 3
  %28 = load ptr, ptr %27, align 8
  call void @avifImageFreePlanes(ptr noundef %28, i32 noundef 255)
  br label %29

29:                                               ; preds = %25, %13
  %30 = load ptr, ptr %4, align 8
  %31 = getelementptr inbounds nuw %struct.avifTile, ptr %30, i32 0, i32 2
  %32 = load ptr, ptr %31, align 8
  %33 = icmp ne ptr %32, null
  br i1 %33, label %34, label %57

34:                                               ; preds = %29
  %35 = load ptr, ptr %4, align 8
  %36 = getelementptr inbounds nuw %struct.avifTile, ptr %35, i32 0, i32 2
  %37 = load ptr, ptr %36, align 8
  %38 = load ptr, ptr %2, align 8
  %39 = getelementptr inbounds nuw %struct.avifDecoderData, ptr %38, i32 0, i32 5
  %40 = load ptr, ptr %39, align 8
  %41 = icmp ne ptr %37, %40
  br i1 %41, label %42, label %54

42:                                               ; preds = %34
  %43 = load ptr, ptr %4, align 8
  %44 = getelementptr inbounds nuw %struct.avifTile, ptr %43, i32 0, i32 2
  %45 = load ptr, ptr %44, align 8
  %46 = load ptr, ptr %2, align 8
  %47 = getelementptr inbounds nuw %struct.avifDecoderData, ptr %46, i32 0, i32 6
  %48 = load ptr, ptr %47, align 8
  %49 = icmp ne ptr %45, %48
  br i1 %49, label %50, label %54

50:                                               ; preds = %42
  %51 = load ptr, ptr %4, align 8
  %52 = getelementptr inbounds nuw %struct.avifTile, ptr %51, i32 0, i32 2
  %53 = load ptr, ptr %52, align 8
  call void @avifCodecDestroy(ptr noundef %53)
  br label %54

54:                                               ; preds = %50, %42, %34
  %55 = load ptr, ptr %4, align 8
  %56 = getelementptr inbounds nuw %struct.avifTile, ptr %55, i32 0, i32 2
  store ptr null, ptr %56, align 8
  br label %57

57:                                               ; preds = %54, %29
  br label %58

58:                                               ; preds = %57
  %59 = load i32, ptr %3, align 4
  %60 = add i32 %59, 1
  store i32 %60, ptr %3, align 4
  br label %6, !llvm.loop !51

61:                                               ; preds = %6
  store i32 0, ptr %5, align 4
  br label %62

62:                                               ; preds = %72, %61
  %63 = load i32, ptr %5, align 4
  %64 = icmp slt i32 %63, 2
  br i1 %64, label %65, label %75

65:                                               ; preds = %62
  %66 = load ptr, ptr %2, align 8
  %67 = getelementptr inbounds nuw %struct.avifDecoderData, ptr %66, i32 0, i32 3
  %68 = load i32, ptr %5, align 4
  %69 = sext i32 %68 to i64
  %70 = getelementptr inbounds [2 x %struct.avifTileInfo], ptr %67, i64 0, i64 %69
  %71 = getelementptr inbounds nuw %struct.avifTileInfo, ptr %70, i32 0, i32 1
  store i32 0, ptr %71, align 4
  br label %72

72:                                               ; preds = %65
  %73 = load i32, ptr %5, align 4
  %74 = add nsw i32 %73, 1
  store i32 %74, ptr %5, align 4
  br label %62, !llvm.loop !52

75:                                               ; preds = %62
  %76 = load ptr, ptr %2, align 8
  %77 = getelementptr inbounds nuw %struct.avifDecoderData, ptr %76, i32 0, i32 5
  %78 = load ptr, ptr %77, align 8
  %79 = icmp ne ptr %78, null
  br i1 %79, label %80, label %86

80:                                               ; preds = %75
  %81 = load ptr, ptr %2, align 8
  %82 = getelementptr inbounds nuw %struct.avifDecoderData, ptr %81, i32 0, i32 5
  %83 = load ptr, ptr %82, align 8
  call void @avifCodecDestroy(ptr noundef %83)
  %84 = load ptr, ptr %2, align 8
  %85 = getelementptr inbounds nuw %struct.avifDecoderData, ptr %84, i32 0, i32 5
  store ptr null, ptr %85, align 8
  br label %86

86:                                               ; preds = %80, %75
  %87 = load ptr, ptr %2, align 8
  %88 = getelementptr inbounds nuw %struct.avifDecoderData, ptr %87, i32 0, i32 6
  %89 = load ptr, ptr %88, align 8
  %90 = icmp ne ptr %89, null
  br i1 %90, label %91, label %97

91:                                               ; preds = %86
  %92 = load ptr, ptr %2, align 8
  %93 = getelementptr inbounds nuw %struct.avifDecoderData, ptr %92, i32 0, i32 6
  %94 = load ptr, ptr %93, align 8
  call void @avifCodecDestroy(ptr noundef %94)
  %95 = load ptr, ptr %2, align 8
  %96 = getelementptr inbounds nuw %struct.avifDecoderData, ptr %95, i32 0, i32 6
  store ptr null, ptr %96, align 8
  br label %97

97:                                               ; preds = %91, %86
  ret void
}