; Function Attrs: nounwind uwtable
define internal fastcc void @avifDecoderDataResetCodec(ptr noundef captures(none) %0) unnamed_addr #0 {
  %2 = getelementptr inbounds nuw i8, ptr %0, i64 44
  %3 = load i32, ptr %2, align 4
  %.not36 = icmp eq i32 %3, 0
  br i1 %.not36, label %.preheader, label %.lr.ph

.lr.ph:                                           ; preds = %1
  %4 = getelementptr inbounds nuw i8, ptr %0, i64 32
  %5 = getelementptr inbounds nuw i8, ptr %0, i64 120
  %6 = getelementptr inbounds nuw i8, ptr %0, i64 128
  br label %9

.preheader:                                       ; preds = %24, %1
  %invariant.gep = getelementptr inbounds nuw i8, ptr %0, i64 60
  store i32 0, ptr %invariant.gep, align 4
  %gep.c = getelementptr inbounds nuw i8, ptr %0, i64 88
  store i32 0, ptr %gep.c, align 4
  %7 = getelementptr inbounds nuw i8, ptr %0, i64 120
  %8 = load ptr, ptr %7, align 8
  %.not = icmp eq ptr %8, null
  br i1 %.not, label %29, label %28

9:                                                ; preds = %.lr.ph, %24
  %indvars.iv = phi i64 [ 0, %.lr.ph ], [ %indvars.iv.next, %24 ]
  %10 = load ptr, ptr %4, align 8
  %11 = getelementptr inbounds nuw %struct.avifTile, ptr %10, i64 %indvars.iv
  %12 = getelementptr inbounds nuw i8, ptr %11, i64 24
  %13 = load ptr, ptr %12, align 8
  %.not30 = icmp eq ptr %13, null
  br i1 %.not30, label %15, label %14

14:                                               ; preds = %9
  tail call void @avifImageFreePlanes(ptr noundef nonnull %13, i32 noundef 255) #13
  br label %15

15:                                               ; preds = %14, %9
  %16 = getelementptr inbounds nuw i8, ptr %11, i64 16
  %17 = load ptr, ptr %16, align 8
  %.not31 = icmp eq ptr %17, null
  br i1 %.not31, label %24, label %18

18:                                               ; preds = %15
  %19 = load ptr, ptr %5, align 8
  %.not32 = icmp eq ptr %17, %19
  br i1 %.not32, label %23, label %20

20:                                               ; preds = %18
  %21 = load ptr, ptr %6, align 8
  %.not33 = icmp eq ptr %17, %21
  br i1 %.not33, label %23, label %22

22:                                               ; preds = %20
  tail call void @avifCodecDestroy(ptr noundef nonnull %17) #13
  br label %23

23:                                               ; preds = %22, %20, %18
  store ptr null, ptr %16, align 8
  br label %24

24:                                               ; preds = %15, %23
  %indvars.iv.next = add nuw nsw i64 %indvars.iv, 1
  %25 = load i32, ptr %2, align 4
  %26 = zext i32 %25 to i64
  %27 = icmp samesign ult i64 %indvars.iv.next, %26
  br i1 %27, label %9, label %.preheader, !llvm.loop !69

28:                                               ; preds = %.preheader
  tail call void @avifCodecDestroy(ptr noundef nonnull %8) #13
  store ptr null, ptr %7, align 8
  br label %29

29:                                               ; preds = %28, %.preheader
  %30 = getelementptr inbounds nuw i8, ptr %0, i64 128
  %31 = load ptr, ptr %30, align 8
  %.not28 = icmp eq ptr %31, null
  br i1 %.not28, label %33, label %32

32:                                               ; preds = %29
  tail call void @avifCodecDestroy(ptr noundef nonnull %31) #13
  store ptr null, ptr %30, align 8
  br label %33

33:                                               ; preds = %32, %29
  ret void
}